target datalayout = "e-m:e-p270:32:32-p271:32:32-p272:64:64-i64:64-i128:128-f80:128-n8:16:32:64-S128"
target triple = "x86_64-pc-linux-gnu"

%struct.ExprEvalStep = type { i64, ptr, ptr, %union.anon }
%union.anon = type { %struct.anon.23 }
%struct.anon.23 = type { ptr, ptr, i32, i32, ptr, ptr }
%struct.ExprContext = type { i32, ptr, ptr, ptr, ptr, ptr, ptr, ptr, ptr, ptr, i64, i8, i64, i8, ptr, ptr, ptr, ptr }
%struct.anon.47 = type { i32, i32, i8, i8, i8, i8, ptr, ptr }

@.str.23 = private unnamed_addr constant [5 x i8] c"true\00", align 1
@.str.24 = private unnamed_addr constant [6 x i8] c"false\00", align 1

; Function Attrs: inlinehint nounwind uwtable
define internal i64 @PointerGetDatum(ptr noundef %0) #2 {
  %2 = alloca ptr, align 8
  store ptr %0, ptr %2, align 8
  %3 = load ptr, ptr %2, align 8
  %4 = ptrtoint ptr %3 to i64
  ret i64 %4
}

; Function Attrs: inlinehint nounwind uwtable
define internal i64 @CStringGetDatum(ptr noundef %0) #2 {
  %2 = alloca ptr, align 8
  store ptr %0, ptr %2, align 8
  %3 = load ptr, ptr %2, align 8
  %4 = call i64 @PointerGetDatum(ptr noundef %3)
  ret i64 %4
}

; Function Attrs: inlinehint nounwind uwtable
define internal zeroext i1 @DatumGetBool(i64 noundef %0) #2 {
  %2 = alloca i64, align 8
  store i64 %0, ptr %2, align 8
  %3 = load i64, ptr %2, align 8
  %4 = icmp ne i64 %3, 0
  ret i1 %4
}

; Function Attrs: nounwind uwtable
define dso_local void @ExecEvalJsonCoercion(ptr noundef %0, ptr noundef %1, ptr noundef %2) #0 {
  %4 = alloca ptr, align 8
  %5 = alloca ptr, align 8
  %6 = alloca ptr, align 8
  %7 = alloca ptr, align 8
  %8 = alloca i32, align 4
  store ptr %0, ptr %4, align 8
  store ptr %1, ptr %5, align 8
  store ptr %2, ptr %6, align 8
  call void @llvm.lifetime.start.p0(i64 8, ptr %7) #11
  %9 = load ptr, ptr %5, align 8
  %10 = getelementptr inbounds nuw %struct.ExprEvalStep, ptr %9, i32 0, i32 3
  %11 = getelementptr inbounds nuw %struct.anon.47, ptr %10, i32 0, i32 7
  %12 = load ptr, ptr %11, align 8
  store ptr %12, ptr %7, align 8
  %13 = load ptr, ptr %5, align 8
  %14 = getelementptr inbounds nuw %struct.ExprEvalStep, ptr %13, i32 0, i32 3
  %15 = getelementptr inbounds nuw %struct.anon.47, ptr %14, i32 0, i32 3
  %16 = load i8, ptr %15, align 1, !range !7, !noundef !8
  %17 = trunc i8 %16 to i1
  br i1 %17, label %18, label %85

18:                                               ; preds = %3
  %19 = load ptr, ptr %5, align 8
  %20 = getelementptr inbounds nuw %struct.ExprEvalStep, ptr %19, i32 0, i32 3
  %21 = getelementptr inbounds nuw %struct.anon.47, ptr %20, i32 0, i32 4
  %22 = load i8, ptr %21, align 2, !range !7, !noundef !8
  %23 = trunc i8 %22 to i1
  br i1 %23, label %24, label %69

24:                                               ; preds = %18
  %25 = load ptr, ptr %5, align 8
  %26 = getelementptr inbounds nuw %struct.ExprEvalStep, ptr %25, i32 0, i32 3
  %27 = getelementptr inbounds nuw %struct.anon.47, ptr %26, i32 0, i32 5
  %28 = load i8, ptr %27, align 1, !range !7, !noundef !8
  %29 = trunc i8 %28 to i1
  br i1 %29, label %30, label %59

30:                                               ; preds = %24
  %31 = load ptr, ptr %5, align 8
  %32 = getelementptr inbounds nuw %struct.ExprEvalStep, ptr %31, i32 0, i32 1
  %33 = load ptr, ptr %32, align 8
  %34 = load i64, ptr %33, align 8
  %35 = load ptr, ptr %5, align 8
  %36 = getelementptr inbounds nuw %struct.ExprEvalStep, ptr %35, i32 0, i32 2
  %37 = load ptr, ptr %36, align 8
  %38 = load i8, ptr %37, align 1, !range !7, !noundef !8
  %39 = trunc i8 %38 to i1
  %40 = load ptr, ptr %5, align 8
  %41 = getelementptr inbounds nuw %struct.ExprEvalStep, ptr %40, i32 0, i32 3
  %42 = getelementptr inbounds nuw %struct.anon.47, ptr %41, i32 0, i32 0
  %43 = load i32, ptr %42, align 8
  %44 = load ptr, ptr %5, align 8
  %45 = getelementptr inbounds nuw %struct.ExprEvalStep, ptr %44, i32 0, i32 3
  %46 = getelementptr inbounds nuw %struct.anon.47, ptr %45, i32 0, i32 6
  %47 = load ptr, ptr %6, align 8
  %48 = getelementptr inbounds nuw %struct.ExprContext, ptr %47, i32 0, i32 4
  %49 = load ptr, ptr %48, align 8
  %50 = load ptr, ptr %7, align 8
  %51 = call zeroext i1 @domain_check_safe(i64 noundef %34, i1 noundef zeroext %39, i32 noundef %43, ptr noundef %46, ptr noundef %49, ptr noundef %50)
  br i1 %51, label %59, label %52

52:                                               ; preds = %30
  %53 = load ptr, ptr %5, align 8
  %54 = getelementptr inbounds nuw %struct.ExprEvalStep, ptr %53, i32 0, i32 2
  %55 = load ptr, ptr %54, align 8
  store i8 1, ptr %55, align 1
  %56 = load ptr, ptr %5, align 8
  %57 = getelementptr inbounds nuw %struct.ExprEvalStep, ptr %56, i32 0, i32 1
  %58 = load ptr, ptr %57, align 8
  store i64 0, ptr %58, align 8
  br label %68

59:                                               ; preds = %30, %24
  %60 = load ptr, ptr %5, align 8
  %61 = getelementptr inbounds nuw %struct.ExprEvalStep, ptr %60, i32 0, i32 1
  %62 = load ptr, ptr %61, align 8
  %63 = load i64, ptr %62, align 8
  %64 = call i64 @DirectFunctionCall1Coll(ptr noundef @bool_int4, i32 noundef 0, i64 noundef %63)
  %65 = load ptr, ptr %5, align 8
  %66 = getelementptr inbounds nuw %struct.ExprEvalStep, ptr %65, i32 0, i32 1
  %67 = load ptr, ptr %66, align 8
  store i64 %64, ptr %67, align 8
  br label %68

68:                                               ; preds = %59, %52
  store i32 1, ptr %8, align 4
  br label %117

69:                                               ; preds = %18
  %70 = load ptr, ptr %5, align 8
  %71 = getelementptr inbounds nuw %struct.ExprEvalStep, ptr %70, i32 0, i32 1
  %72 = load ptr, ptr %71, align 8
  %73 = load i64, ptr %72, align 8
  %74 = call zeroext i1 @DatumGetBool(i64 noundef %73)
  br i1 %74, label %75, label %77

75:                                               ; preds = %69
  %76 = call i64 @CStringGetDatum(ptr noundef @.str.23)
  br label %79

77:                                               ; preds = %69
  %78 = call i64 @CStringGetDatum(ptr noundef @.str.24)
  br label %79

79:                                               ; preds = %77, %75
  %80 = phi i64 [ %76, %75 ], [ %78, %77 ]
  %81 = call i64 @DirectFunctionCall1Coll(ptr noundef @jsonb_in, i32 noundef 0, i64 noundef %80)
  %82 = load ptr, ptr %5, align 8
  %83 = getelementptr inbounds nuw %struct.ExprEvalStep, ptr %82, i32 0, i32 1
  %84 = load ptr, ptr %83, align 8
  store i64 %81, ptr %84, align 8
  br label %85

85:                                               ; preds = %79, %3
  %86 = load ptr, ptr %5, align 8
  %87 = getelementptr inbounds nuw %struct.ExprEvalStep, ptr %86, i32 0, i32 1
  %88 = load ptr, ptr %87, align 8
  %89 = load i64, ptr %88, align 8
  %90 = load ptr, ptr %5, align 8
  %91 = getelementptr inbounds nuw %struct.ExprEvalStep, ptr %90, i32 0, i32 3
  %92 = getelementptr inbounds nuw %struct.anon.47, ptr %91, i32 0, i32 0
  %93 = load i32, ptr %92, align 8
  %94 = load ptr, ptr %5, align 8
  %95 = getelementptr inbounds nuw %struct.ExprEvalStep, ptr %94, i32 0, i32 3
  %96 = getelementptr inbounds nuw %struct.anon.47, ptr %95, i32 0, i32 1
  %97 = load i32, ptr %96, align 4
  %98 = load ptr, ptr %5, align 8
  %99 = getelementptr inbounds nuw %struct.ExprEvalStep, ptr %98, i32 0, i32 3
  %100 = getelementptr inbounds nuw %struct.anon.47, ptr %99, i32 0, i32 6
  %101 = load ptr, ptr %6, align 8
  %102 = getelementptr inbounds nuw %struct.ExprContext, ptr %101, i32 0, i32 4
  %103 = load ptr, ptr %102, align 8
  %104 = load ptr, ptr %5, align 8
  %105 = getelementptr inbounds nuw %struct.ExprEvalStep, ptr %104, i32 0, i32 2
  %106 = load ptr, ptr %105, align 8
  %107 = load ptr, ptr %5, align 8
  %108 = getelementptr inbounds nuw %struct.ExprEvalStep, ptr %107, i32 0, i32 3
  %109 = getelementptr inbounds nuw %struct.anon.47, ptr %108, i32 0, i32 2
  %110 = load i8, ptr %109, align 8, !range !7, !noundef !8
  %111 = trunc i8 %110 to i1
  %112 = load ptr, ptr %7, align 8
  %113 = call i64 @json_populate_type(i64 noundef %89, i32 noundef 3802, i32 noundef %93, i32 noundef %97, ptr noundef %100, ptr noundef %103, ptr noundef %106, i1 noundef zeroext %111, ptr noundef %112)
  %114 = load ptr, ptr %5, align 8
  %115 = getelementptr inbounds nuw %struct.ExprEvalStep, ptr %114, i32 0, i32 1
  %116 = load ptr, ptr %115, align 8
  store i64 %113, ptr %116, align 8
  store i32 0, ptr %8, align 4
  br label %117

117:                                              ; preds = %85, %68
  call void @llvm.lifetime.end.p0(i64 8, ptr %7) #11
  %118 = load i32, ptr %8, align 4
  switch i32 %118, label %120 [
    i32 0, label %119
    i32 1, label %119
  ]

119:                                              ; preds = %117, %117
  ret void

120:                                              ; preds = %117
  unreachable
}