; Function Attrs: nounwind uwtable
define dso_local void @ExecEvalJsonCoercion(ptr readnone captures(none) %0, ptr noundef %1, ptr noundef readonly captures(none) %2) local_unnamed_addr #0 {
  %4 = getelementptr inbounds nuw i8, ptr %1, i64 24
  %5 = getelementptr inbounds nuw i8, ptr %1, i64 48
  %6 = load ptr, ptr %5, align 8
  %7 = getelementptr inbounds nuw i8, ptr %1, i64 33
  %8 = load i8, ptr %7, align 1, !range !8, !noundef !9
  %9 = trunc nuw i8 %8 to i1
  br i1 %9, label %10, label %46

10:                                               ; preds = %3
  %11 = getelementptr inbounds nuw i8, ptr %1, i64 34
  %12 = load i8, ptr %11, align 2, !range !8, !noundef !9
  %13 = trunc nuw i8 %12 to i1
  br i1 %13, label %14, label %40

14:                                               ; preds = %10
  %15 = getelementptr inbounds nuw i8, ptr %1, i64 35
  %16 = load i8, ptr %15, align 1, !range !8, !noundef !9
  %17 = trunc nuw i8 %16 to i1
  br i1 %17, label %18, label %34

18:                                               ; preds = %14
  %19 = getelementptr inbounds nuw i8, ptr %1, i64 8
  %20 = load ptr, ptr %19, align 8
  %21 = load i64, ptr %20, align 8
  %22 = getelementptr inbounds nuw i8, ptr %1, i64 16
  %23 = load ptr, ptr %22, align 8
  %24 = load i8, ptr %23, align 1, !range !8, !noundef !9
  %25 = trunc nuw i8 %24 to i1
  %26 = load i32, ptr %4, align 8
  %27 = getelementptr inbounds nuw i8, ptr %1, i64 40
  %28 = getelementptr inbounds nuw i8, ptr %2, i64 32
  %29 = load ptr, ptr %28, align 8
  %30 = tail call zeroext i1 @domain_check_safe(i64 noundef %21, i1 noundef zeroext %25, i32 noundef %26, ptr noundef nonnull %27, ptr noundef %29, ptr noundef %6) #18
  br i1 %30, label %34, label %31

31:                                               ; preds = %18
  %32 = load ptr, ptr %22, align 8
  store i8 1, ptr %32, align 1
  %33 = load ptr, ptr %19, align 8
  store i64 0, ptr %33, align 8
  br label %63

34:                                               ; preds = %18, %14
  %35 = getelementptr inbounds nuw i8, ptr %1, i64 8
  %36 = load ptr, ptr %35, align 8
  %37 = load i64, ptr %36, align 8
  %38 = tail call i64 @DirectFunctionCall1Coll(ptr noundef nonnull @bool_int4, i32 noundef 0, i64 noundef %37) #18
  %39 = load ptr, ptr %35, align 8
  store i64 %38, ptr %39, align 8
  br label %63

40:                                               ; preds = %10
  %41 = getelementptr inbounds nuw i8, ptr %1, i64 8
  %42 = load ptr, ptr %41, align 8
  %43 = load i64, ptr %42, align 8
  %.not = icmp eq i64 %43, 0
  %spec.select = select i1 %.not, i64 ptrtoint (ptr @.str.24 to i64), i64 ptrtoint (ptr @.str.23 to i64)
  %44 = tail call i64 @DirectFunctionCall1Coll(ptr noundef nonnull @jsonb_in, i32 noundef 0, i64 noundef %spec.select) #18
  %45 = load ptr, ptr %41, align 8
  store i64 %44, ptr %45, align 8
  br label %46

46:                                               ; preds = %40, %3
  %47 = getelementptr inbounds nuw i8, ptr %1, i64 8
  %48 = load ptr, ptr %47, align 8
  %49 = load i64, ptr %48, align 8
  %50 = load i32, ptr %4, align 8
  %51 = getelementptr inbounds nuw i8, ptr %1, i64 28
  %52 = load i32, ptr %51, align 4
  %53 = getelementptr inbounds nuw i8, ptr %1, i64 40
  %54 = getelementptr inbounds nuw i8, ptr %2, i64 32
  %55 = load ptr, ptr %54, align 8
  %56 = getelementptr inbounds nuw i8, ptr %1, i64 16
  %57 = load ptr, ptr %56, align 8
  %58 = getelementptr inbounds nuw i8, ptr %1, i64 32
  %59 = load i8, ptr %58, align 8, !range !8, !noundef !9
  %60 = trunc nuw i8 %59 to i1
  %61 = tail call i64 @json_populate_type(i64 noundef %49, i32 noundef 3802, i32 noundef %50, i32 noundef %52, ptr noundef nonnull %53, ptr noundef %55, ptr noundef %57, i1 noundef zeroext %60, ptr noundef %6) #18
  %62 = load ptr, ptr %47, align 8
  store i64 %61, ptr %62, align 8
  br label %63

63:                                               ; preds = %31, %34, %46
  ret void
}